; Function Attrs: mustprogress uwtable
define void @_ZN6google10LogMessageC2EPKciNS_11LogSeverityEPNS_7LogSinkEb(ptr noundef nonnull align 8 dereferenceable(96) initializes((0, 8)) %0, ptr noundef %1, i32 noundef %2, i32 noundef %3, ptr noundef %4, i1 noundef zeroext %5) unnamed_addr #0 align 2 {
  store ptr null, ptr %0, align 8, !tbaa !84
  %7 = getelementptr inbounds nuw i8, ptr %0, i64 16
  tail call void @_ZN6google14LogMessageTimeC1Ev(ptr noundef nonnull align 8 dereferenceable(80) %7)
  %.fca.0.extract = select i1 %5, i64 ptrtoint (ptr @_ZN6google10LogMessage16SendToSinkAndLogEv to i64), i64 ptrtoint (ptr @_ZN6google10LogMessage10SendToSinkEv to i64)
  tail call void @_ZN6google10LogMessage4InitEPKciNS_11LogSeverityEMS0_FvvE(ptr noundef nonnull align 8 dereferenceable(96) %0, ptr noundef %1, i32 noundef %2, i32 noundef %3, i64 %.fca.0.extract, i64 0)
  %8 = getelementptr inbounds nuw i8, ptr %0, i64 8
  %9 = load ptr, ptr %8, align 8, !tbaa !91
  %10 = getelementptr inbounds nuw i8, ptr %9, i64 30384
  store ptr %4, ptr %10, align 8, !tbaa !51
  ret void
}